target datalayout = "e-m:e-p270:32:32-p271:32:32-p272:64:64-i64:64-i128:128-f80:128-n8:16:32:64-S128"
target triple = "x86_64-pc-linux-gnu"

%struct.ieee802154_packet = type { i32, i32, i32, i32, i8, i8, i8, i8, i8, i8, i8, i8, i8, i8, i8, i8, i16, i16, i16, i64, i16, i64, i32, i32, i8, i32, i8, i64, %union.anon, i8, i8, ptr }
%union.anon = type { i64 }

; Function Attrs: null_pointer_is_valid sspstrong uwtable
define internal zeroext i1 @dissect_zbip_beacon_heur(ptr noundef %0, ptr noundef %1, ptr noundef %2, ptr noundef %3) #1 {
  %5 = alloca i1, align 1
  %6 = alloca ptr, align 8
  %7 = alloca ptr, align 8
  %8 = alloca ptr, align 8
  %9 = alloca ptr, align 8
  %10 = alloca ptr, align 8
  %11 = alloca i32, align 4
  store ptr %0, ptr %6, align 8
  store ptr %1, ptr %7, align 8
  store ptr %2, ptr %8, align 8
  store ptr %3, ptr %9, align 8
  call void @llvm.lifetime.start.p0(i64 8, ptr %10) #10
  %12 = load ptr, ptr %9, align 8
  store ptr %12, ptr %10, align 8
  %13 = load ptr, ptr %10, align 8
  %14 = icmp ne ptr %13, null
  br i1 %14, label %16, label %15

15:                                               ; preds = %4
  store i1 false, ptr %5, align 1
  store i32 1, ptr %11, align 4
  br label %39

16:                                               ; preds = %4
  %17 = load ptr, ptr %10, align 8
  %18 = getelementptr inbounds nuw %struct.ieee802154_packet, ptr %17, i32 0, i32 3
  %19 = load i32, ptr %18, align 4
  %20 = icmp ne i32 %19, 2
  br i1 %20, label %21, label %22

21:                                               ; preds = %16
  store i1 false, ptr %5, align 1
  store i32 1, ptr %11, align 4
  br label %39

22:                                               ; preds = %16
  %23 = load ptr, ptr %6, align 8
  %24 = call i32 @tvb_captured_length(ptr noundef %23)
  %25 = icmp eq i32 %24, 0
  br i1 %25, label %26, label %27

26:                                               ; preds = %22
  store i1 false, ptr %5, align 1
  store i32 1, ptr %11, align 4
  br label %39

27:                                               ; preds = %22
  %28 = load ptr, ptr %6, align 8
  %29 = call zeroext i8 @tvb_get_uint8(ptr noundef %28, i32 noundef 0)
  %30 = zext i8 %29 to i32
  %31 = icmp ne i32 %30, 2
  br i1 %31, label %32, label %33

32:                                               ; preds = %27
  store i1 false, ptr %5, align 1
  store i32 1, ptr %11, align 4
  br label %39

33:                                               ; preds = %27
  %34 = load ptr, ptr %6, align 8
  %35 = load ptr, ptr %7, align 8
  %36 = load ptr, ptr %8, align 8
  %37 = load ptr, ptr %10, align 8
  %38 = call i32 @dissect_zbip_beacon(ptr noundef %34, ptr noundef %35, ptr noundef %36, ptr noundef %37)
  store i1 true, ptr %5, align 1
  store i32 1, ptr %11, align 4
  br label %39

39:                                               ; preds = %33, %32, %26, %21, %15
  call void @llvm.lifetime.end.p0(i64 8, ptr %10) #10
  %40 = load i1, ptr %5, align 1
  ret i1 %40
}