; Function Attrs: null_pointer_is_valid sspstrong uwtable
define internal noundef zeroext i1 @dissect_zbip_beacon_heur(ptr noundef %0, ptr noundef %1, ptr noundef %2, ptr noundef %3) #1 {
  %.not = icmp eq ptr %3, null
  br i1 %.not, label %15, label %5

5:                                                ; preds = %4
  %6 = getelementptr inbounds nuw i8, ptr %3, i64 12
  %7 = load i32, ptr %6, align 4
  %.not11 = icmp eq i32 %7, 2
  br i1 %.not11, label %8, label %15

8:                                                ; preds = %5
  %9 = tail call i32 @tvb_captured_length(ptr noundef %0)
  %10 = icmp eq i32 %9, 0
  br i1 %10, label %15, label %11

11:                                               ; preds = %8
  %12 = tail call zeroext i8 @tvb_get_uint8(ptr noundef %0, i32 noundef 0)
  %.not12 = icmp eq i8 %12, 2
  br i1 %.not12, label %13, label %15

13:                                               ; preds = %11
  %14 = tail call i32 @dissect_zbip_beacon(ptr noundef %0, ptr noundef %1, ptr noundef %2, ptr noundef nonnull %3)
  br label %15

15:                                               ; preds = %11, %8, %5, %4, %13
  %.0 = phi i1 [ true, %13 ], [ false, %4 ], [ false, %5 ], [ false, %8 ], [ false, %11 ]
  ret i1 %.0
}